(dp0
S'file_descriptor'
p1
(dp2
S'modified_date'
p3
S'2017-11-26 18:37:31'
p4
sS'file_id'
p5
I1
sS'file'
p6
S'/Users/tsantos/github/assignment2_python/sample_files/file'
p7
sS'description'
p8
S'File 1'
p9
ss.